target datalayout = "e-m:e-p270:32:32-p271:32:32-p272:64:64-i64:64-i128:128-f80:128-n8:16:32:64-S128"
target triple = "x86_64-pc-linux-gnu"

%struct.evthread_lock_callbacks = type { i32, i32, ptr, ptr, ptr, ptr }
%struct.evbuffer = type { ptr, ptr, ptr, i64, i64, i64, i64, ptr, i8, i32, ptr, i32, %struct.event_callback, %struct.evbuffer_cb_queue, ptr }
%struct.event_callback = type { %struct.anon, i16, i8, i8, %union.anon, ptr }
%struct.anon = type { ptr, ptr }
%union.anon = type { ptr }
%struct.evbuffer_cb_queue = type { ptr }
%struct.evbuffer_cb_info = type { i64, i64, i64 }
%struct.evbuffer_cb_entry = type { %struct.anon.1, %union.anon.2, ptr, i32 }
%struct.anon.1 = type { ptr, ptr }
%union.anon.2 = type { ptr }

@evthread_lock_fns_ = external global %struct.evthread_lock_callbacks, align 8
@evthread_lock_debugging_enabled_ = external global i32, align 4

; Function Attrs: nounwind uwtable
define internal void @evbuffer_run_callbacks(ptr noundef %0, i32 noundef %1) #0 {
  %3 = alloca ptr, align 8
  %4 = alloca i32, align 4
  %5 = alloca ptr, align 8
  %6 = alloca ptr, align 8
  %7 = alloca %struct.evbuffer_cb_info, align 8
  %8 = alloca i64, align 8
  %9 = alloca i32, align 4
  %10 = alloca i32, align 4
  %11 = alloca i32, align 4
  %12 = alloca i32, align 4
  store ptr %0, ptr %3, align 8
  store i32 %1, ptr %4, align 4
  call void @llvm.lifetime.start.p0(i64 8, ptr %5) #10
  call void @llvm.lifetime.start.p0(i64 8, ptr %6) #10
  call void @llvm.lifetime.start.p0(i64 24, ptr %7) #10
  call void @llvm.lifetime.start.p0(i64 8, ptr %8) #10
  call void @llvm.lifetime.start.p0(i64 4, ptr %9) #10
  call void @llvm.lifetime.start.p0(i64 4, ptr %10) #10
  call void @llvm.lifetime.start.p0(i64 4, ptr %11) #10
  store i32 1, ptr %11, align 4
  %13 = load i32, ptr %4, align 4
  %14 = icmp ne i32 %13, 0
  br i1 %14, label %15, label %16

15:                                               ; preds = %2
  store i32 3, ptr %9, align 4
  store i32 1, ptr %10, align 4
  br label %27

16:                                               ; preds = %2
  %17 = load ptr, ptr %3, align 8
  %18 = getelementptr inbounds nuw %struct.evbuffer, ptr %17, i32 0, i32 8
  %19 = load i8, ptr %18, align 8
  %20 = lshr i8 %19, 3
  %21 = and i8 %20, 1
  %22 = zext i8 %21 to i32
  %23 = icmp ne i32 %22, 0
  br i1 %23, label %24, label %25

24:                                               ; preds = %16
  store i32 3, ptr %9, align 4
  store i32 3, ptr %10, align 4
  store i32 0, ptr %11, align 4
  br label %26

25:                                               ; preds = %16
  store i32 1, ptr %9, align 4
  store i32 1, ptr %10, align 4
  br label %26

26:                                               ; preds = %25, %24
  br label %27

27:                                               ; preds = %26, %15
  br label %28

28:                                               ; preds = %27
  %29 = load ptr, ptr %3, align 8
  %30 = getelementptr inbounds nuw %struct.evbuffer, ptr %29, i32 0, i32 7
  %31 = load ptr, ptr %30, align 8
  %32 = icmp ne ptr %31, null
  br i1 %32, label %33, label %40

33:                                               ; preds = %28
  %34 = load i32, ptr @evthread_lock_debugging_enabled_, align 4
  %35 = icmp ne i32 %34, 0
  br i1 %35, label %36, label %40

36:                                               ; preds = %33
  br label %37

37:                                               ; preds = %36
  br label %38

38:                                               ; preds = %37
  br label %39

39:                                               ; preds = %38
  br label %40

40:                                               ; preds = %39, %33, %28
  br label %41

41:                                               ; preds = %40
  br label %42

42:                                               ; preds = %41
  %43 = load ptr, ptr %3, align 8
  %44 = getelementptr inbounds nuw %struct.evbuffer, ptr %43, i32 0, i32 13
  %45 = getelementptr inbounds nuw %struct.evbuffer_cb_queue, ptr %44, i32 0, i32 0
  %46 = load ptr, ptr %45, align 8
  %47 = icmp eq ptr %46, null
  br i1 %47, label %48, label %53

48:                                               ; preds = %42
  %49 = load ptr, ptr %3, align 8
  %50 = getelementptr inbounds nuw %struct.evbuffer, ptr %49, i32 0, i32 6
  store i64 0, ptr %50, align 8
  %51 = load ptr, ptr %3, align 8
  %52 = getelementptr inbounds nuw %struct.evbuffer, ptr %51, i32 0, i32 5
  store i64 0, ptr %52, align 8
  store i32 1, ptr %12, align 4
  br label %143

53:                                               ; preds = %42
  %54 = load ptr, ptr %3, align 8
  %55 = getelementptr inbounds nuw %struct.evbuffer, ptr %54, i32 0, i32 5
  %56 = load i64, ptr %55, align 8
  %57 = icmp eq i64 %56, 0
  br i1 %57, label %58, label %64

58:                                               ; preds = %53
  %59 = load ptr, ptr %3, align 8
  %60 = getelementptr inbounds nuw %struct.evbuffer, ptr %59, i32 0, i32 6
  %61 = load i64, ptr %60, align 8
  %62 = icmp eq i64 %61, 0
  br i1 %62, label %63, label %64

63:                                               ; preds = %58
  store i32 1, ptr %12, align 4
  br label %143

64:                                               ; preds = %58, %53
  %65 = load ptr, ptr %3, align 8
  %66 = getelementptr inbounds nuw %struct.evbuffer, ptr %65, i32 0, i32 3
  %67 = load i64, ptr %66, align 8
  store i64 %67, ptr %8, align 8
  %68 = load i64, ptr %8, align 8
  %69 = load ptr, ptr %3, align 8
  %70 = getelementptr inbounds nuw %struct.evbuffer, ptr %69, i32 0, i32 6
  %71 = load i64, ptr %70, align 8
  %72 = add i64 %68, %71
  %73 = load ptr, ptr %3, align 8
  %74 = getelementptr inbounds nuw %struct.evbuffer, ptr %73, i32 0, i32 5
  %75 = load i64, ptr %74, align 8
  %76 = sub i64 %72, %75
  %77 = getelementptr inbounds nuw %struct.evbuffer_cb_info, ptr %7, i32 0, i32 0
  store i64 %76, ptr %77, align 8
  %78 = load ptr, ptr %3, align 8
  %79 = getelementptr inbounds nuw %struct.evbuffer, ptr %78, i32 0, i32 5
  %80 = load i64, ptr %79, align 8
  %81 = getelementptr inbounds nuw %struct.evbuffer_cb_info, ptr %7, i32 0, i32 1
  store i64 %80, ptr %81, align 8
  %82 = load ptr, ptr %3, align 8
  %83 = getelementptr inbounds nuw %struct.evbuffer, ptr %82, i32 0, i32 6
  %84 = load i64, ptr %83, align 8
  %85 = getelementptr inbounds nuw %struct.evbuffer_cb_info, ptr %7, i32 0, i32 2
  store i64 %84, ptr %85, align 8
  %86 = load i32, ptr %11, align 4
  %87 = icmp ne i32 %86, 0
  br i1 %87, label %88, label %93

88:                                               ; preds = %64
  %89 = load ptr, ptr %3, align 8
  %90 = getelementptr inbounds nuw %struct.evbuffer, ptr %89, i32 0, i32 5
  store i64 0, ptr %90, align 8
  %91 = load ptr, ptr %3, align 8
  %92 = getelementptr inbounds nuw %struct.evbuffer, ptr %91, i32 0, i32 6
  store i64 0, ptr %92, align 8
  br label %93

93:                                               ; preds = %88, %64
  %94 = load ptr, ptr %3, align 8
  %95 = getelementptr inbounds nuw %struct.evbuffer, ptr %94, i32 0, i32 13
  %96 = getelementptr inbounds nuw %struct.evbuffer_cb_queue, ptr %95, i32 0, i32 0
  %97 = load ptr, ptr %96, align 8
  store ptr %97, ptr %5, align 8
  br label %98

98:                                               ; preds = %140, %93
  %99 = load ptr, ptr %5, align 8
  %100 = icmp ne ptr %99, null
  br i1 %100, label %101, label %142

101:                                              ; preds = %98
  %102 = load ptr, ptr %5, align 8
  %103 = getelementptr inbounds nuw %struct.evbuffer_cb_entry, ptr %102, i32 0, i32 0
  %104 = getelementptr inbounds nuw %struct.anon.1, ptr %103, i32 0, i32 0
  %105 = load ptr, ptr %104, align 8
  store ptr %105, ptr %6, align 8
  %106 = load ptr, ptr %5, align 8
  %107 = getelementptr inbounds nuw %struct.evbuffer_cb_entry, ptr %106, i32 0, i32 3
  %108 = load i32, ptr %107, align 8
  %109 = load i32, ptr %9, align 4
  %110 = and i32 %108, %109
  %111 = load i32, ptr %10, align 4
  %112 = icmp ne i32 %110, %111
  br i1 %112, label %113, label %114

113:                                              ; preds = %101
  br label %140

114:                                              ; preds = %101
  %115 = load ptr, ptr %5, align 8
  %116 = getelementptr inbounds nuw %struct.evbuffer_cb_entry, ptr %115, i32 0, i32 3
  %117 = load i32, ptr %116, align 8
  %118 = and i32 %117, 262144
  %119 = icmp ne i32 %118, 0
  br i1 %119, label %120, label %131

120:                                              ; preds = %114
  %121 = load ptr, ptr %5, align 8
  %122 = getelementptr inbounds nuw %struct.evbuffer_cb_entry, ptr %121, i32 0, i32 1
  %123 = load ptr, ptr %122, align 8
  %124 = load ptr, ptr %3, align 8
  %125 = getelementptr inbounds nuw %struct.evbuffer_cb_info, ptr %7, i32 0, i32 0
  %126 = load i64, ptr %125, align 8
  %127 = load i64, ptr %8, align 8
  %128 = load ptr, ptr %5, align 8
  %129 = getelementptr inbounds nuw %struct.evbuffer_cb_entry, ptr %128, i32 0, i32 2
  %130 = load ptr, ptr %129, align 8
  call void %123(ptr noundef %124, i64 noundef %126, i64 noundef %127, ptr noundef %130)
  br label %139

131:                                              ; preds = %114
  %132 = load ptr, ptr %5, align 8
  %133 = getelementptr inbounds nuw %struct.evbuffer_cb_entry, ptr %132, i32 0, i32 1
  %134 = load ptr, ptr %133, align 8
  %135 = load ptr, ptr %3, align 8
  %136 = load ptr, ptr %5, align 8
  %137 = getelementptr inbounds nuw %struct.evbuffer_cb_entry, ptr %136, i32 0, i32 2
  %138 = load ptr, ptr %137, align 8
  call void %134(ptr noundef %135, ptr noundef %7, ptr noundef %138)
  br label %139

139:                                              ; preds = %131, %120
  br label %140

140:                                              ; preds = %139, %113
  %141 = load ptr, ptr %6, align 8
  store ptr %141, ptr %5, align 8
  br label %98, !llvm.loop !3

142:                                              ; preds = %98
  store i32 0, ptr %12, align 4
  br label %143

143:                                              ; preds = %142, %63, %48
  call void @llvm.lifetime.end.p0(i64 4, ptr %11) #10
  call void @llvm.lifetime.end.p0(i64 4, ptr %10) #10
  call void @llvm.lifetime.end.p0(i64 4, ptr %9) #10
  call void @llvm.lifetime.end.p0(i64 8, ptr %8) #10
  call void @llvm.lifetime.end.p0(i64 24, ptr %7) #10
  call void @llvm.lifetime.end.p0(i64 8, ptr %6) #10
  call void @llvm.lifetime.end.p0(i64 8, ptr %5) #10
  %144 = load i32, ptr %12, align 4
  switch i32 %144, label %146 [
    i32 0, label %145
    i32 1, label %145
  ]

145:                                              ; preds = %143, %143
  ret void

146:                                              ; preds = %143
  unreachable
}

; Function Attrs: nounwind uwtable
define internal void @evbuffer_deferred_callback(ptr noundef %0, ptr noundef %1) #0 {
  %3 = alloca ptr, align 8
  %4 = alloca ptr, align 8
  %5 = alloca ptr, align 8
  %6 = alloca ptr, align 8
  store ptr %0, ptr %3, align 8
  store ptr %1, ptr %4, align 8
  call void @llvm.lifetime.start.p0(i64 8, ptr %5) #10
  store ptr null, ptr %5, align 8
  call void @llvm.lifetime.start.p0(i64 8, ptr %6) #10
  %7 = load ptr, ptr %4, align 8
  store ptr %7, ptr %6, align 8
  br label %8

8:                                                ; preds = %2
  br label %9

9:                                                ; preds = %8
  %10 = load ptr, ptr %6, align 8
  %11 = getelementptr inbounds nuw %struct.evbuffer, ptr %10, i32 0, i32 7
  %12 = load ptr, ptr %11, align 8
  %13 = icmp ne ptr %12, null
  br i1 %13, label %14, label %20

14:                                               ; preds = %9
  %15 = load ptr, ptr getelementptr inbounds nuw (%struct.evthread_lock_callbacks, ptr @evthread_lock_fns_, i32 0, i32 4), align 8
  %16 = load ptr, ptr %6, align 8
  %17 = getelementptr inbounds nuw %struct.evbuffer, ptr %16, i32 0, i32 7
  %18 = load ptr, ptr %17, align 8
  %19 = call i32 %15(i32 noundef 0, ptr noundef %18)
  br label %20

20:                                               ; preds = %14, %9
  br label %21

21:                                               ; preds = %20
  br label %22

22:                                               ; preds = %21
  br label %23

23:                                               ; preds = %22
  br label %24

24:                                               ; preds = %23
  %25 = load ptr, ptr %6, align 8
  %26 = getelementptr inbounds nuw %struct.evbuffer, ptr %25, i32 0, i32 14
  %27 = load ptr, ptr %26, align 8
  store ptr %27, ptr %5, align 8
  %28 = load ptr, ptr %6, align 8
  call void @evbuffer_run_callbacks(ptr noundef %28, i32 noundef 1)
  %29 = load ptr, ptr %6, align 8
  call void @evbuffer_decref_and_unlock_(ptr noundef %29)
  %30 = load ptr, ptr %5, align 8
  %31 = icmp ne ptr %30, null
  br i1 %31, label %32, label %35

32:                                               ; preds = %24
  %33 = load ptr, ptr %5, align 8
  %34 = call i32 @bufferevent_decref(ptr noundef %33)
  br label %35

35:                                               ; preds = %32, %24
  call void @llvm.lifetime.end.p0(i64 8, ptr %6) #10
  call void @llvm.lifetime.end.p0(i64 8, ptr %5) #10
  ret void
}