; Function Attrs: nounwind uwtable
define internal void @evbuffer_deferred_callback(ptr readnone captures(none) %0, ptr noundef %1) #1 {
  %3 = alloca %struct.evbuffer_cb_info, align 8
  %4 = getelementptr inbounds nuw i8, ptr %1, i64 56
  %5 = load ptr, ptr %4, align 8
  %.not = icmp eq ptr %5, null
  br i1 %.not, label %9, label %6

6:                                                ; preds = %2
  %7 = load ptr, ptr getelementptr inbounds nuw (i8, ptr @evthread_lock_fns_, i64 24), align 8
  %8 = tail call i32 %7(i32 noundef 0, ptr noundef nonnull %5) #16
  br label %9

9:                                                ; preds = %6, %2
  %10 = getelementptr inbounds nuw i8, ptr %1, i64 136
  %11 = load ptr, ptr %10, align 8
  call void @llvm.lifetime.start.p0(i64 24, ptr nonnull %3) #16
  %12 = getelementptr inbounds nuw i8, ptr %1, i64 128
  %13 = load ptr, ptr %12, align 8
  %14 = icmp eq ptr %13, null
  %15 = getelementptr inbounds nuw i8, ptr %1, i64 40
  br i1 %14, label %16, label %17

16:                                               ; preds = %9
  tail call void @llvm.memset.p0.i64(ptr noundef nonnull align 8 dereferenceable(16) %15, i8 0, i64 16, i1 false)
  br label %evbuffer_run_callbacks.exit

17:                                               ; preds = %9
  %18 = load i64, ptr %15, align 8
  %19 = icmp eq i64 %18, 0
  %20 = getelementptr inbounds nuw i8, ptr %1, i64 48
  %21 = load i64, ptr %20, align 8
  %22 = icmp eq i64 %21, 0
  %or.cond.i = select i1 %19, i1 %22, i1 false
  br i1 %or.cond.i, label %evbuffer_run_callbacks.exit, label %._crit_edge.i

._crit_edge.i:                                    ; preds = %17
  %23 = getelementptr inbounds nuw i8, ptr %1, i64 24
  %24 = load i64, ptr %23, align 8
  %25 = sub i64 %21, %18
  %26 = add i64 %25, %24
  store i64 %26, ptr %3, align 8
  %27 = getelementptr inbounds nuw i8, ptr %3, i64 8
  store i64 %18, ptr %27, align 8
  %28 = getelementptr inbounds nuw i8, ptr %3, i64 16
  store i64 %21, ptr %28, align 8
  tail call void @llvm.memset.p0.i64(ptr noundef nonnull align 8 dereferenceable(16) %15, i8 0, i64 16, i1 false)
  br label %29

29:                                               ; preds = %45, %._crit_edge.i
  %.03441.i = phi ptr [ %13, %._crit_edge.i ], [ %30, %45 ]
  %30 = load ptr, ptr %.03441.i, align 8
  %31 = getelementptr inbounds nuw i8, ptr %.03441.i, i64 32
  %32 = load i32, ptr %31, align 8
  %33 = and i32 %32, 3
  %.not38.i = icmp eq i32 %33, 1
  br i1 %.not38.i, label %34, label %45

34:                                               ; preds = %29
  %35 = and i32 %32, 262144
  %.not39.i = icmp eq i32 %35, 0
  %36 = getelementptr inbounds nuw i8, ptr %.03441.i, i64 16
  %37 = load ptr, ptr %36, align 8
  br i1 %.not39.i, label %42, label %38

38:                                               ; preds = %34
  %39 = load i64, ptr %3, align 8
  %40 = getelementptr inbounds nuw i8, ptr %.03441.i, i64 24
  %41 = load ptr, ptr %40, align 8
  call void %37(ptr noundef %1, i64 noundef %39, i64 noundef %24, ptr noundef %41) #16
  br label %45

42:                                               ; preds = %34
  %43 = getelementptr inbounds nuw i8, ptr %.03441.i, i64 24
  %44 = load ptr, ptr %43, align 8
  call void %37(ptr noundef %1, ptr noundef nonnull %3, ptr noundef %44) #16
  br label %45

45:                                               ; preds = %42, %38, %29
  %.not37.i = icmp eq ptr %30, null
  br i1 %.not37.i, label %evbuffer_run_callbacks.exit, label %29, !llvm.loop !3

evbuffer_run_callbacks.exit:                      ; preds = %45, %16, %17
  call void @llvm.lifetime.end.p0(i64 24, ptr nonnull %3) #16
  call void @evbuffer_decref_and_unlock_(ptr noundef %1)
  %.not9 = icmp eq ptr %11, null
  br i1 %.not9, label %48, label %46

46:                                               ; preds = %evbuffer_run_callbacks.exit
  %47 = call i32 @bufferevent_decref(ptr noundef nonnull %11) #16
  br label %48

48:                                               ; preds = %46, %evbuffer_run_callbacks.exit
  ret void
}